target datalayout = "e-m:e-p270:32:32-p271:32:32-p272:64:64-i64:64-i128:128-f80:128-n8:16:32:64-S128"
target triple = "x86_64-pc-linux-gnu"

%struct.lzma_outq = type { ptr, ptr, i64, ptr, i64, i64, i32, i32, i32 }
%struct.lzma_outbuf_s = type { ptr, ptr, i64, i64, i64, i8, i32, i64, i64, [0 x i8] }

; Function Attrs: nounwind uwtable
define internal void @free_one_cached_buffer(ptr noundef %0, ptr noundef %1) #0 {
  %3 = alloca ptr, align 8
  %4 = alloca ptr, align 8
  %5 = alloca ptr, align 8
  store ptr %0, ptr %3, align 8, !tbaa !10
  store ptr %1, ptr %4, align 8, !tbaa !10
  call void @llvm.lifetime.start.p0(i64 8, ptr %5) #4
  %6 = load ptr, ptr %3, align 8, !tbaa !10
  %7 = getelementptr inbounds nuw %struct.lzma_outq, ptr %6, i32 0, i32 3
  %8 = load ptr, ptr %7, align 8, !tbaa !12
  store ptr %8, ptr %5, align 8, !tbaa !17
  %9 = load ptr, ptr %5, align 8, !tbaa !17
  %10 = getelementptr inbounds nuw %struct.lzma_outbuf_s, ptr %9, i32 0, i32 0
  %11 = load ptr, ptr %10, align 8, !tbaa !17
  %12 = load ptr, ptr %3, align 8, !tbaa !10
  %13 = getelementptr inbounds nuw %struct.lzma_outq, ptr %12, i32 0, i32 3
  store ptr %11, ptr %13, align 8, !tbaa !12
  %14 = load ptr, ptr %3, align 8, !tbaa !10
  %15 = getelementptr inbounds nuw %struct.lzma_outq, ptr %14, i32 0, i32 7
  %16 = load i32, ptr %15, align 4, !tbaa !18
  %17 = add i32 %16, -1
  store i32 %17, ptr %15, align 4, !tbaa !18
  %18 = load ptr, ptr %5, align 8, !tbaa !17
  %19 = getelementptr inbounds nuw %struct.lzma_outbuf_s, ptr %18, i32 0, i32 2
  %20 = load i64, ptr %19, align 8, !tbaa !4
  %21 = call i64 @lzma_outq_outbuf_memusage(i64 noundef %20)
  %22 = load ptr, ptr %3, align 8, !tbaa !10
  %23 = getelementptr inbounds nuw %struct.lzma_outq, ptr %22, i32 0, i32 4
  %24 = load i64, ptr %23, align 8, !tbaa !19
  %25 = sub i64 %24, %21
  store i64 %25, ptr %23, align 8, !tbaa !19
  %26 = load ptr, ptr %5, align 8, !tbaa !17
  %27 = load ptr, ptr %4, align 8, !tbaa !10
  call void @lzma_free(ptr noundef %26, ptr noundef %27)
  call void @llvm.lifetime.end.p0(i64 8, ptr %5) #4
  ret void
}

; Function Attrs: nounwind uwtable
define dso_local void @lzma_outq_clear_cache(ptr noundef %0, ptr noundef %1) #0 {
  %3 = alloca ptr, align 8
  %4 = alloca ptr, align 8
  store ptr %0, ptr %3, align 8, !tbaa !10
  store ptr %1, ptr %4, align 8, !tbaa !10
  br label %5

5:                                                ; preds = %10, %2
  %6 = load ptr, ptr %3, align 8, !tbaa !10
  %7 = getelementptr inbounds nuw %struct.lzma_outq, ptr %6, i32 0, i32 3
  %8 = load ptr, ptr %7, align 8, !tbaa !12
  %9 = icmp ne ptr %8, null
  br i1 %9, label %10, label %13

10:                                               ; preds = %5
  %11 = load ptr, ptr %3, align 8, !tbaa !10
  %12 = load ptr, ptr %4, align 8, !tbaa !10
  call void @free_one_cached_buffer(ptr noundef %11, ptr noundef %12)
  br label %5, !llvm.loop !15

13:                                               ; preds = %5
  ret void
}

; Function Attrs: inlinehint nounwind uwtable
define internal i64 @lzma_outq_outbuf_memusage(i64 noundef %0) #2 {
  %2 = alloca i64, align 8
  store i64 %0, ptr %2, align 8, !tbaa !4
  %3 = load i64, ptr %2, align 8, !tbaa !4
  %4 = add i64 64, %3
  ret i64 %4
}

; Function Attrs: nounwind uwtable
define dso_local i32 @lzma_outq_prealloc_buf(ptr noundef %0, ptr noundef %1, i64 noundef %2) #0 {
  %4 = alloca i32, align 4
  %5 = alloca ptr, align 8
  %6 = alloca ptr, align 8
  %7 = alloca i64, align 8
  %8 = alloca i64, align 8
  %9 = alloca i32, align 4
  store ptr %0, ptr %5, align 8, !tbaa !10
  store ptr %1, ptr %6, align 8, !tbaa !10
  store i64 %2, ptr %7, align 8, !tbaa !4
  %10 = load ptr, ptr %5, align 8, !tbaa !10
  %11 = getelementptr inbounds nuw %struct.lzma_outq, ptr %10, i32 0, i32 3
  %12 = load ptr, ptr %11, align 8, !tbaa !12
  %13 = icmp ne ptr %12, null
  br i1 %13, label %14, label %23

14:                                               ; preds = %3
  %15 = load ptr, ptr %5, align 8, !tbaa !10
  %16 = getelementptr inbounds nuw %struct.lzma_outq, ptr %15, i32 0, i32 3
  %17 = load ptr, ptr %16, align 8, !tbaa !12
  %18 = getelementptr inbounds nuw %struct.lzma_outbuf_s, ptr %17, i32 0, i32 2
  %19 = load i64, ptr %18, align 8, !tbaa !4
  %20 = load i64, ptr %7, align 8, !tbaa !4
  %21 = icmp eq i64 %19, %20
  br i1 %21, label %22, label %23

22:                                               ; preds = %14
  store i32 0, ptr %4, align 4
  br label %62

23:                                               ; preds = %14, %3
  %24 = load i64, ptr %7, align 8, !tbaa !4
  %25 = icmp ugt i64 %24, -65
  br i1 %25, label %26, label %27

26:                                               ; preds = %23
  store i32 5, ptr %4, align 4
  br label %62

27:                                               ; preds = %23
  call void @llvm.lifetime.start.p0(i64 8, ptr %8) #4
  %28 = load i64, ptr %7, align 8, !tbaa !4
  %29 = call i64 @lzma_outq_outbuf_memusage(i64 noundef %28)
  store i64 %29, ptr %8, align 8, !tbaa !4
  %30 = load ptr, ptr %5, align 8, !tbaa !10
  %31 = load ptr, ptr %6, align 8, !tbaa !10
  call void @lzma_outq_clear_cache(ptr noundef %30, ptr noundef %31)
  %32 = load i64, ptr %8, align 8, !tbaa !4
  %33 = load ptr, ptr %6, align 8, !tbaa !10
  %34 = call ptr @lzma_alloc(i64 noundef %32, ptr noundef %33)
  %35 = load ptr, ptr %5, align 8, !tbaa !10
  %36 = getelementptr inbounds nuw %struct.lzma_outq, ptr %35, i32 0, i32 3
  store ptr %34, ptr %36, align 8, !tbaa !12
  %37 = load ptr, ptr %5, align 8, !tbaa !10
  %38 = getelementptr inbounds nuw %struct.lzma_outq, ptr %37, i32 0, i32 3
  %39 = load ptr, ptr %38, align 8, !tbaa !12
  %40 = icmp eq ptr %39, null
  br i1 %40, label %41, label %42

41:                                               ; preds = %27
  store i32 5, ptr %4, align 4
  store i32 1, ptr %9, align 4
  br label %61

42:                                               ; preds = %27
  %43 = load ptr, ptr %5, align 8, !tbaa !10
  %44 = getelementptr inbounds nuw %struct.lzma_outq, ptr %43, i32 0, i32 3
  %45 = load ptr, ptr %44, align 8, !tbaa !12
  %46 = getelementptr inbounds nuw %struct.lzma_outbuf_s, ptr %45, i32 0, i32 0
  store ptr null, ptr %46, align 8, !tbaa !17
  %47 = load i64, ptr %7, align 8, !tbaa !4
  %48 = load ptr, ptr %5, align 8, !tbaa !10
  %49 = getelementptr inbounds nuw %struct.lzma_outq, ptr %48, i32 0, i32 3
  %50 = load ptr, ptr %49, align 8, !tbaa !12
  %51 = getelementptr inbounds nuw %struct.lzma_outbuf_s, ptr %50, i32 0, i32 2
  store i64 %47, ptr %51, align 8, !tbaa !4
  %52 = load ptr, ptr %5, align 8, !tbaa !10
  %53 = getelementptr inbounds nuw %struct.lzma_outq, ptr %52, i32 0, i32 7
  %54 = load i32, ptr %53, align 4, !tbaa !18
  %55 = add i32 %54, 1
  store i32 %55, ptr %53, align 4, !tbaa !18
  %56 = load i64, ptr %8, align 8, !tbaa !4
  %57 = load ptr, ptr %5, align 8, !tbaa !10
  %58 = getelementptr inbounds nuw %struct.lzma_outq, ptr %57, i32 0, i32 4
  %59 = load i64, ptr %58, align 8, !tbaa !19
  %60 = add i64 %59, %56
  store i64 %60, ptr %58, align 8, !tbaa !19
  store i32 0, ptr %4, align 4
  store i32 1, ptr %9, align 4
  br label %61

61:                                               ; preds = %42, %41
  call void @llvm.lifetime.end.p0(i64 8, ptr %8) #4
  br label %62

62:                                               ; preds = %61, %26, %22
  %63 = load i32, ptr %4, align 4
  ret i32 %63
}