; Function Attrs: nounwind uwtable
define dso_local range(i32 0, 6) i32 @lzma_outq_prealloc_buf(ptr noundef captures(none) %0, ptr noundef %1, i64 noundef %2) local_unnamed_addr #1 {
  %4 = getelementptr inbounds nuw i8, ptr %0, i64 24
  %5 = load ptr, ptr %4, align 8, !tbaa !4
  %.not = icmp eq ptr %5, null
  br i1 %.not, label %10, label %6

6:                                                ; preds = %3
  %7 = getelementptr inbounds nuw i8, ptr %5, i64 16
  %8 = load i64, ptr %7, align 8, !tbaa !14
  %9 = icmp eq i64 %8, %2
  br i1 %9, label %37, label %.thread

10:                                               ; preds = %3
  %11 = icmp ugt i64 %2, -65
  br i1 %11, label %37, label %lzma_outq_clear_cache.exit

.thread:                                          ; preds = %6
  %12 = icmp ugt i64 %2, -65
  br i1 %12, label %37, label %.lr.ph.i

.lr.ph.i:                                         ; preds = %.thread
  %13 = getelementptr inbounds nuw i8, ptr %0, i64 52
  %14 = getelementptr inbounds nuw i8, ptr %0, i64 32
  br label %15

15:                                               ; preds = %15, %.lr.ph.i
  %16 = phi ptr [ %5, %.lr.ph.i ], [ %24, %15 ]
  %17 = load ptr, ptr %16, align 8, !tbaa !12
  store ptr %17, ptr %4, align 8, !tbaa !4
  %18 = load i32, ptr %13, align 4, !tbaa !13
  %19 = add i32 %18, -1
  store i32 %19, ptr %13, align 4, !tbaa !13
  %20 = getelementptr inbounds nuw i8, ptr %16, i64 16
  %21 = load i64, ptr %20, align 8, !tbaa !14
  %22 = load i64, ptr %14, align 8, !tbaa !15
  %reass.sub = sub i64 %22, %21
  %23 = add i64 %reass.sub, -64
  store i64 %23, ptr %14, align 8, !tbaa !15
  tail call void @lzma_free(ptr noundef nonnull %16, ptr noundef %1) #6
  %24 = load ptr, ptr %4, align 8, !tbaa !4
  %.not.i = icmp eq ptr %24, null
  br i1 %.not.i, label %lzma_outq_clear_cache.exit, label %15, !llvm.loop !16

lzma_outq_clear_cache.exit:                       ; preds = %15, %10
  %25 = add nuw i64 %2, 64
  %26 = tail call ptr @lzma_alloc(i64 noundef %25, ptr noundef %1) #6
  store ptr %26, ptr %4, align 8, !tbaa !4
  %27 = icmp eq ptr %26, null
  br i1 %27, label %37, label %28

28:                                               ; preds = %lzma_outq_clear_cache.exit
  store ptr null, ptr %26, align 8, !tbaa !12
  %29 = load ptr, ptr %4, align 8, !tbaa !4
  %30 = getelementptr inbounds nuw i8, ptr %29, i64 16
  store i64 %2, ptr %30, align 8, !tbaa !14
  %31 = getelementptr inbounds nuw i8, ptr %0, i64 52
  %32 = load i32, ptr %31, align 4, !tbaa !13
  %33 = add i32 %32, 1
  store i32 %33, ptr %31, align 4, !tbaa !13
  %34 = getelementptr inbounds nuw i8, ptr %0, i64 32
  %35 = load i64, ptr %34, align 8, !tbaa !15
  %36 = add i64 %35, %25
  store i64 %36, ptr %34, align 8, !tbaa !15
  br label %37

37:                                               ; preds = %.thread, %28, %lzma_outq_clear_cache.exit, %10, %6
  %.0 = phi i32 [ 0, %6 ], [ 5, %10 ], [ 0, %28 ], [ 5, %lzma_outq_clear_cache.exit ], [ 5, %.thread ]
  ret i32 %.0
}